target datalayout = "e-m:e-p270:32:32-p271:32:32-p272:64:64-i64:64-i128:128-f80:128-n8:16:32:64-S128"
target triple = "x86_64-pc-linux-gnu"

%"class.google::protobuf::StringPiece" = type { ptr, i64 }

; Function Attrs: mustprogress nounwind uwtable
define linkonce_odr noundef ptr @_ZNK6google8protobuf11StringPiece4dataEv(ptr noundef nonnull align 8 dereferenceable(16) %0) #2 comdat align 2 {
  %2 = alloca ptr, align 8
  store ptr %0, ptr %2, align 8, !tbaa !8
  %3 = load ptr, ptr %2, align 8
  %4 = getelementptr inbounds nuw %"class.google::protobuf::StringPiece", ptr %3, i32 0, i32 0
  %5 = load ptr, ptr %4, align 8, !tbaa !10
  ret ptr %5
}

; Function Attrs: mustprogress nounwind uwtable
define linkonce_odr noundef i64 @_ZNK6google8protobuf11StringPiece6lengthEv(ptr noundef nonnull align 8 dereferenceable(16) %0) #2 comdat align 2 {
  %2 = alloca ptr, align 8
  store ptr %0, ptr %2, align 8, !tbaa !8
  %3 = load ptr, ptr %2, align 8
  %4 = getelementptr inbounds nuw %"class.google::protobuf::StringPiece", ptr %3, i32 0, i32 1
  %5 = load i64, ptr %4, align 8, !tbaa !14
  ret i64 %5
}

; Function Attrs: mustprogress nounwind uwtable
define noundef i64 @_ZNK6google8protobuf11StringPiece4findEcm(ptr noundef nonnull align 8 dereferenceable(16) %0, i8 noundef signext %1, i64 noundef %2) #2 align 2 {
  %4 = alloca i64, align 8
  %5 = alloca ptr, align 8
  %6 = alloca i8, align 1
  %7 = alloca i64, align 8
  %8 = alloca ptr, align 8
  store ptr %0, ptr %5, align 8, !tbaa !8
  store i8 %1, ptr %6, align 1, !tbaa !28
  store i64 %2, ptr %7, align 8, !tbaa !15
  %9 = load ptr, ptr %5, align 8
  %10 = getelementptr inbounds nuw %"class.google::protobuf::StringPiece", ptr %9, i32 0, i32 1
  %11 = load i64, ptr %10, align 8, !tbaa !14
  %12 = icmp sle i64 %11, 0
  br i1 %12, label %18, label %13

13:                                               ; preds = %3
  %14 = load i64, ptr %7, align 8, !tbaa !15
  %15 = getelementptr inbounds nuw %"class.google::protobuf::StringPiece", ptr %9, i32 0, i32 1
  %16 = load i64, ptr %15, align 8, !tbaa !14
  %17 = icmp uge i64 %14, %16
  br i1 %17, label %18, label %19

18:                                               ; preds = %13, %3
  store i64 -1, ptr %4, align 8
  br label %43

19:                                               ; preds = %13
  call void @llvm.lifetime.start.p0(i64 8, ptr %8) #13
  %20 = getelementptr inbounds nuw %"class.google::protobuf::StringPiece", ptr %9, i32 0, i32 0
  %21 = load ptr, ptr %20, align 8, !tbaa !10
  %22 = load i64, ptr %7, align 8, !tbaa !15
  %23 = getelementptr inbounds nuw i8, ptr %21, i64 %22
  %24 = load i8, ptr %6, align 1, !tbaa !28
  %25 = sext i8 %24 to i32
  %26 = getelementptr inbounds nuw %"class.google::protobuf::StringPiece", ptr %9, i32 0, i32 1
  %27 = load i64, ptr %26, align 8, !tbaa !14
  %28 = load i64, ptr %7, align 8, !tbaa !15
  %29 = sub i64 %27, %28
  %30 = call noundef ptr @memchr(ptr noundef %23, i32 noundef %25, i64 noundef %29) #14
  store ptr %30, ptr %8, align 8, !tbaa !16
  %31 = load ptr, ptr %8, align 8, !tbaa !16
  %32 = icmp ne ptr %31, null
  br i1 %32, label %33, label %40

33:                                               ; preds = %19
  %34 = load ptr, ptr %8, align 8, !tbaa !16
  %35 = getelementptr inbounds nuw %"class.google::protobuf::StringPiece", ptr %9, i32 0, i32 0
  %36 = load ptr, ptr %35, align 8, !tbaa !10
  %37 = ptrtoint ptr %34 to i64
  %38 = ptrtoint ptr %36 to i64
  %39 = sub i64 %37, %38
  br label %41

40:                                               ; preds = %19
  br label %41

41:                                               ; preds = %40, %33
  %42 = phi i64 [ %39, %33 ], [ -1, %40 ]
  store i64 %42, ptr %4, align 8
  call void @llvm.lifetime.end.p0(i64 8, ptr %8) #13
  br label %43

43:                                               ; preds = %41, %18
  %44 = load i64, ptr %4, align 8
  ret i64 %44
}

; Function Attrs: inlinehint mustprogress uwtable
define internal void @_ZN6google8protobufL16BuildLookupTableENS0_11StringPieceEPb(ptr %0, i64 %1, ptr noundef %2) #7 {
  %4 = alloca %"class.google::protobuf::StringPiece", align 8
  %5 = alloca ptr, align 8
  %6 = alloca i64, align 8
  %7 = alloca ptr, align 8
  %8 = alloca i64, align 8
  %9 = getelementptr inbounds nuw { ptr, i64 }, ptr %4, i32 0, i32 0
  store ptr %0, ptr %9, align 8
  %10 = getelementptr inbounds nuw { ptr, i64 }, ptr %4, i32 0, i32 1
  store i64 %1, ptr %10, align 8
  store ptr %2, ptr %5, align 8, !tbaa !35
  call void @llvm.lifetime.start.p0(i64 8, ptr %6) #13
  %11 = call noundef i64 @_ZNK6google8protobuf11StringPiece6lengthEv(ptr noundef nonnull align 8 dereferenceable(16) %4)
  store i64 %11, ptr %6, align 8, !tbaa !15
  call void @llvm.lifetime.start.p0(i64 8, ptr %7) #13
  %12 = call noundef ptr @_ZNK6google8protobuf11StringPiece4dataEv(ptr noundef nonnull align 8 dereferenceable(16) %4)
  store ptr %12, ptr %7, align 8, !tbaa !16
  call void @llvm.lifetime.start.p0(i64 8, ptr %8) #13
  store i64 0, ptr %8, align 8, !tbaa !15
  br label %13

13:                                               ; preds = %26, %3
  %14 = load i64, ptr %8, align 8, !tbaa !15
  %15 = load i64, ptr %6, align 8, !tbaa !15
  %16 = icmp slt i64 %14, %15
  br i1 %16, label %18, label %17

17:                                               ; preds = %13
  call void @llvm.lifetime.end.p0(i64 8, ptr %8) #13
  br label %29

18:                                               ; preds = %13
  %19 = load ptr, ptr %5, align 8, !tbaa !35
  %20 = load ptr, ptr %7, align 8, !tbaa !16
  %21 = load i64, ptr %8, align 8, !tbaa !15
  %22 = getelementptr inbounds i8, ptr %20, i64 %21
  %23 = load i8, ptr %22, align 1, !tbaa !28
  %24 = zext i8 %23 to i64
  %25 = getelementptr inbounds nuw i8, ptr %19, i64 %24
  store i8 1, ptr %25, align 1, !tbaa !30
  br label %26

26:                                               ; preds = %18
  %27 = load i64, ptr %8, align 8, !tbaa !15
  %28 = add nsw i64 %27, 1
  store i64 %28, ptr %8, align 8, !tbaa !15
  br label %13, !llvm.loop !37

29:                                               ; preds = %17
  call void @llvm.lifetime.end.p0(i64 8, ptr %7) #13
  call void @llvm.lifetime.end.p0(i64 8, ptr %6) #13
  ret void
}

; Function Attrs: mustprogress nounwind uwtable
define linkonce_odr noundef i64 @_ZNK6google8protobuf11StringPiece13find_first_ofEcm(ptr noundef nonnull align 8 dereferenceable(16) %0, i8 noundef signext %1, i64 noundef %2) #2 comdat align 2 {
  %4 = alloca ptr, align 8
  %5 = alloca i8, align 1
  %6 = alloca i64, align 8
  store ptr %0, ptr %4, align 8, !tbaa !8
  store i8 %1, ptr %5, align 1, !tbaa !28
  store i64 %2, ptr %6, align 8, !tbaa !15
  %7 = load ptr, ptr %4, align 8
  %8 = load i8, ptr %5, align 1, !tbaa !28
  %9 = load i64, ptr %6, align 8, !tbaa !15
  %10 = call noundef i64 @_ZNK6google8protobuf11StringPiece4findEcm(ptr noundef nonnull align 8 dereferenceable(16) %7, i8 noundef signext %8, i64 noundef %9)
  ret i64 %10
}

; Function Attrs: mustprogress uwtable
define noundef i64 @_ZNK6google8protobuf11StringPiece13find_first_ofES1_m(ptr noundef nonnull align 8 dereferenceable(16) %0, ptr %1, i64 %2, i64 noundef %3) #0 align 2 {
  %5 = alloca i64, align 8
  %6 = alloca %"class.google::protobuf::StringPiece", align 8
  %7 = alloca ptr, align 8
  %8 = alloca i64, align 8
  %9 = alloca [256 x i8], align 16
  %10 = alloca %"class.google::protobuf::StringPiece", align 8
  %11 = alloca i64, align 8
  %12 = alloca i32, align 4
  %13 = getelementptr inbounds nuw { ptr, i64 }, ptr %6, i32 0, i32 0
  store ptr %1, ptr %13, align 8
  %14 = getelementptr inbounds nuw { ptr, i64 }, ptr %6, i32 0, i32 1
  store i64 %2, ptr %14, align 8
  store ptr %0, ptr %7, align 8, !tbaa !8
  store i64 %3, ptr %8, align 8, !tbaa !15
  %15 = load ptr, ptr %7, align 8
  %16 = getelementptr inbounds nuw %"class.google::protobuf::StringPiece", ptr %15, i32 0, i32 1
  %17 = load i64, ptr %16, align 8, !tbaa !14
  %18 = icmp sle i64 %17, 0
  br i1 %18, label %23, label %19

19:                                               ; preds = %4
  %20 = getelementptr inbounds nuw %"class.google::protobuf::StringPiece", ptr %6, i32 0, i32 1
  %21 = load i64, ptr %20, align 8, !tbaa !14
  %22 = icmp sle i64 %21, 0
  br i1 %22, label %23, label %24

23:                                               ; preds = %19, %4
  store i64 -1, ptr %5, align 8
  br label %68

24:                                               ; preds = %19
  %25 = getelementptr inbounds nuw %"class.google::protobuf::StringPiece", ptr %6, i32 0, i32 1
  %26 = load i64, ptr %25, align 8, !tbaa !14
  %27 = icmp eq i64 %26, 1
  br i1 %27, label %28, label %35

28:                                               ; preds = %24
  %29 = getelementptr inbounds nuw %"class.google::protobuf::StringPiece", ptr %6, i32 0, i32 0
  %30 = load ptr, ptr %29, align 8, !tbaa !10
  %31 = getelementptr inbounds i8, ptr %30, i64 0
  %32 = load i8, ptr %31, align 1, !tbaa !28
  %33 = load i64, ptr %8, align 8, !tbaa !15
  %34 = call noundef i64 @_ZNK6google8protobuf11StringPiece13find_first_ofEcm(ptr noundef nonnull align 8 dereferenceable(16) %15, i8 noundef signext %32, i64 noundef %33)
  store i64 %34, ptr %5, align 8
  br label %68

35:                                               ; preds = %24
  call void @llvm.lifetime.start.p0(i64 256, ptr %9) #13
  call void @llvm.memset.p0.i64(ptr align 16 %9, i8 0, i64 256, i1 false)
  call void @llvm.memcpy.p0.p0.i64(ptr align 8 %10, ptr align 8 %6, i64 16, i1 false), !tbaa.struct !27
  %36 = getelementptr inbounds [256 x i8], ptr %9, i64 0, i64 0
  %37 = getelementptr inbounds nuw { ptr, i64 }, ptr %10, i32 0, i32 0
  %38 = load ptr, ptr %37, align 8
  %39 = getelementptr inbounds nuw { ptr, i64 }, ptr %10, i32 0, i32 1
  %40 = load i64, ptr %39, align 8
  call void @_ZN6google8protobufL16BuildLookupTableENS0_11StringPieceEPb(ptr %38, i64 %40, ptr noundef %36)
  call void @llvm.lifetime.start.p0(i64 8, ptr %11) #13
  %41 = load i64, ptr %8, align 8, !tbaa !15
  store i64 %41, ptr %11, align 8, !tbaa !15
  br label %42

42:                                               ; preds = %61, %35
  %43 = load i64, ptr %11, align 8, !tbaa !15
  %44 = getelementptr inbounds nuw %"class.google::protobuf::StringPiece", ptr %15, i32 0, i32 1
  %45 = load i64, ptr %44, align 8, !tbaa !14
  %46 = icmp slt i64 %43, %45
  br i1 %46, label %48, label %47

47:                                               ; preds = %42
  store i32 2, ptr %12, align 4
  br label %64

48:                                               ; preds = %42
  %49 = getelementptr inbounds nuw %"class.google::protobuf::StringPiece", ptr %15, i32 0, i32 0
  %50 = load ptr, ptr %49, align 8, !tbaa !10
  %51 = load i64, ptr %11, align 8, !tbaa !15
  %52 = getelementptr inbounds i8, ptr %50, i64 %51
  %53 = load i8, ptr %52, align 1, !tbaa !28
  %54 = zext i8 %53 to i64
  %55 = getelementptr inbounds nuw [256 x i8], ptr %9, i64 0, i64 %54
  %56 = load i8, ptr %55, align 1, !tbaa !30, !range !32, !noundef !33
  %57 = trunc i8 %56 to i1
  br i1 %57, label %58, label %60

58:                                               ; preds = %48
  %59 = load i64, ptr %11, align 8, !tbaa !15
  store i64 %59, ptr %5, align 8
  store i32 1, ptr %12, align 4
  br label %64

60:                                               ; preds = %48
  br label %61

61:                                               ; preds = %60
  %62 = load i64, ptr %11, align 8, !tbaa !15
  %63 = add nsw i64 %62, 1
  store i64 %63, ptr %11, align 8, !tbaa !15
  br label %42, !llvm.loop !34

64:                                               ; preds = %58, %47
  call void @llvm.lifetime.end.p0(i64 8, ptr %11) #13
  %65 = load i32, ptr %12, align 4
  switch i32 %65, label %67 [
    i32 2, label %66
  ]

66:                                               ; preds = %64
  store i64 -1, ptr %5, align 8
  store i32 1, ptr %12, align 4
  br label %67

67:                                               ; preds = %66, %64
  call void @llvm.lifetime.end.p0(i64 256, ptr %9) #13
  br label %68

68:                                               ; preds = %67, %28, %23
  %69 = load i64, ptr %5, align 8
  ret i64 %69
}